; Function Attrs: nounwind uwtable
define hidden i32 @_glfwGetPhysicalDevicePresentationSupportWayland(ptr noundef %0, ptr noundef %1, i32 noundef %2) local_unnamed_addr #0 {
  %4 = load ptr, ptr getelementptr inbounds nuw (i8, ptr @_glfw, i64 133832), align 8, !tbaa !349
  %5 = tail call ptr %4(ptr noundef %0, ptr noundef nonnull @.str.36) #20
  %.not = icmp eq ptr %5, null
  br i1 %.not, label %6, label %7

6:                                                ; preds = %3
  tail call void (i32, ptr, ...) @_glfwInputError(i32 noundef 65542, ptr noundef nonnull @.str.37) #20
  br label %10

7:                                                ; preds = %3
  %8 = load ptr, ptr getelementptr inbounds nuw (i8, ptr @_glfw, i64 133888), align 8, !tbaa !232
  %9 = tail call i32 %5(ptr noundef %1, i32 noundef %2, ptr noundef %8) #20
  br label %10

10:                                               ; preds = %7, %6
  %.0 = phi i32 [ %9, %7 ], [ 0, %6 ]
  ret i32 %.0
}